; Function Attrs: mustprogress uwtable
define hidden void @_ZN11OpenImageIO6v3_1_010TIFFOutputC2Ev(ptr noundef nonnull align 8 dereferenceable(296) %0) unnamed_addr #5 align 2 personality ptr @__gxx_personality_v0 {
  %2 = alloca %struct.timespec, align 8
  tail call void @_ZN11OpenImageIO6v3_1_011ImageOutputC2Ev(ptr noundef nonnull align 8 dereferenceable(184) %0)
  store ptr getelementptr inbounds nuw inrange(-16, 176) (i8, ptr @_ZTVN11OpenImageIO6v3_1_010TIFFOutputE, i64 16), ptr %0, align 8, !tbaa !21
  %3 = getelementptr inbounds nuw i8, ptr %0, i64 184
  %4 = getelementptr inbounds nuw i8, ptr %0, i64 192
  %5 = getelementptr inbounds nuw i8, ptr %0, i64 216
  %6 = getelementptr inbounds nuw i8, ptr %0, i64 224
  tail call void @llvm.memset.p0.i64(ptr noundef nonnull align 8 dereferenceable(24) %6, i8 0, i64 24, i1 false)
  tail call void @llvm.memset.p0.i64(ptr noundef nonnull align 8 dereferenceable(34) %3, i8 0, i64 34, i1 false)
  call void @llvm.lifetime.start.p0(i64 16, ptr nonnull %2) #32
  %7 = call i32 @clock_gettime(i32 noundef 1, ptr noundef nonnull %2) #32
  %8 = load i64, ptr %2, align 8, !tbaa !23
  %9 = mul nsw i64 %8, 1000000000
  %10 = getelementptr inbounds nuw i8, ptr %2, i64 8
  %11 = load i64, ptr %10, align 8, !tbaa !25
  %12 = add nsw i64 %9, %11
  call void @llvm.lifetime.end.p0(i64 16, ptr nonnull %2) #32
  store i64 %12, ptr %6, align 8, !tbaa !26
  store i8 1, ptr %5, align 8, !tbaa !29
  invoke void @_ZN11OpenImageIO6v3_1_027oiio_tiff_set_error_handlerEv()
          to label %13 unwind label %23

13:                                               ; preds = %1
  store ptr null, ptr %3, align 8, !tbaa !30
  %14 = getelementptr inbounds nuw i8, ptr %0, i64 248
  store i32 0, ptr %14, align 8, !tbaa !66
  %15 = getelementptr inbounds nuw i8, ptr %0, i64 260
  store i32 8, ptr %15, align 4, !tbaa !67
  %16 = getelementptr inbounds nuw i8, ptr %0, i64 264
  store i32 1, ptr %16, align 8, !tbaa !68
  %17 = getelementptr inbounds nuw i8, ptr %0, i64 268
  store i32 2, ptr %17, align 4, !tbaa !69
  %18 = getelementptr inbounds nuw i8, ptr %0, i64 272
  store i32 32, ptr %18, align 8, !tbaa !70
  %19 = getelementptr inbounds nuw i8, ptr %0, i64 276
  store i32 6, ptr %19, align 4, !tbaa !71
  %20 = getelementptr inbounds nuw i8, ptr %0, i64 284
  store i32 0, ptr %20, align 4, !tbaa !72
  %21 = getelementptr inbounds nuw i8, ptr %0, i64 288
  store i8 0, ptr %21, align 8, !tbaa !73
  %22 = getelementptr inbounds nuw i8, ptr %0, i64 289
  store i8 0, ptr %22, align 1, !tbaa !74
  invoke void @_ZN11OpenImageIO6v3_1_011ImageOutput13ioproxy_clearEv(ptr noundef nonnull align 8 dereferenceable(296) %0)
          to label %_ZN11OpenImageIO6v3_1_010TIFFOutput4initEv.exit unwind label %23

_ZN11OpenImageIO6v3_1_010TIFFOutput4initEv.exit:  ; preds = %13
  ret void

23:                                               ; preds = %13, %1
  %24 = landingpad { ptr, i32 }
          cleanup
  call void @_ZN11OpenImageIO6v3_1_05TimerD2Ev(ptr noundef nonnull align 8 dereferenceable(32) %5) #32
  %25 = load ptr, ptr %4, align 8, !tbaa !75
  %.not.i.i.i = icmp eq ptr %25, null
  br i1 %.not.i.i.i, label %_ZNSt6vectorIhSaIhEED2Ev.exit, label %26

26:                                               ; preds = %23
  %27 = getelementptr inbounds nuw i8, ptr %0, i64 208
  %28 = load ptr, ptr %27, align 8, !tbaa !76
  %29 = ptrtoint ptr %28 to i64
  %30 = ptrtoint ptr %25 to i64
  %31 = sub i64 %29, %30
  call void @_ZdlPvm(ptr noundef nonnull %25, i64 noundef %31) #33
  br label %_ZNSt6vectorIhSaIhEED2Ev.exit

_ZNSt6vectorIhSaIhEED2Ev.exit:                    ; preds = %23, %26
  call void @_ZN11OpenImageIO6v3_1_011ImageOutputD2Ev(ptr noundef nonnull align 8 dereferenceable(184) %0) #32
  resume { ptr, i32 } %24
}